; Function Attrs: mustprogress uwtable
define void @_ZNK10open_spiel6hearts11HeartsState12LegalActionsEv(ptr dead_on_unwind noalias nocapture writable sret(%"class.std::vector.49") align 8 %0, ptr nocapture noundef nonnull readonly align 8 dereferenceable(1600) %1) unnamed_addr #4 align 2 {
  %3 = getelementptr inbounds nuw i8, ptr %1, i64 84
  %4 = load i32, ptr %3, align 4
  switch i32 %4, label %9 [
    i32 0, label %5
    i32 1, label %6
    i32 2, label %7
    i32 3, label %8
  ]

5:                                                ; preds = %2
  tail call void @_ZNK10open_spiel6hearts11HeartsState19PassDirLegalActionsEv(ptr dead_on_unwind writable sret(%"class.std::vector.49") align 8 %0, ptr noundef nonnull align 8 dereferenceable(1600) %1)
  br label %10

6:                                                ; preds = %2
  tail call void @_ZNK10open_spiel6hearts11HeartsState16DealLegalActionsEv(ptr dead_on_unwind writable sret(%"class.std::vector.49") align 8 %0, ptr noundef nonnull align 8 dereferenceable(1600) %1)
  br label %10

7:                                                ; preds = %2
  tail call void @_ZNK10open_spiel6hearts11HeartsState16PassLegalActionsEv(ptr dead_on_unwind writable sret(%"class.std::vector.49") align 8 %0, ptr noundef nonnull align 8 dereferenceable(1600) %1)
  br label %10

8:                                                ; preds = %2
  tail call void @_ZNK10open_spiel6hearts11HeartsState16PlayLegalActionsEv(ptr dead_on_unwind writable sret(%"class.std::vector.49") align 8 %0, ptr noundef nonnull align 8 dereferenceable(1600) %1)
  br label %10

9:                                                ; preds = %2
  tail call void @llvm.memset.p0.i64(ptr noundef nonnull align 8 dereferenceable(24) %0, i8 0, i64 24, i1 false)
  br label %10

10:                                               ; preds = %9, %8, %7, %6, %5
  ret void
}